target datalayout = "e-m:e-p270:32:32-p271:32:32-p272:64:64-i64:64-i128:128-f80:128-n8:16:32:64-S128"
target triple = "x86_64-pc-linux-gnu"

%struct.SliceParams = type { ptr, i32, ptr }

; Function Attrs: nounwind uwtable
define internal void @blend_expr_8bit(ptr noundef %0, i64 noundef %1, ptr noundef %2, i64 noundef %3, ptr noundef %4, i64 noundef %5, i64 noundef %6, i64 noundef %7, ptr noundef %8, ptr noundef %9) #0 {
  %11 = alloca ptr, align 8
  %12 = alloca i64, align 8
  %13 = alloca ptr, align 8
  %14 = alloca i64, align 8
  %15 = alloca ptr, align 8
  %16 = alloca i64, align 8
  %17 = alloca i64, align 8
  %18 = alloca i64, align 8
  %19 = alloca ptr, align 8
  %20 = alloca ptr, align 8
  %21 = alloca ptr, align 8
  %22 = alloca ptr, align 8
  %23 = alloca ptr, align 8
  %24 = alloca i32, align 4
  %25 = alloca ptr, align 8
  %26 = alloca ptr, align 8
  %27 = alloca i32, align 4
  %28 = alloca i32, align 4
  store ptr %0, ptr %11, align 8, !tbaa !46
  store i64 %1, ptr %12, align 8, !tbaa !88
  store ptr %2, ptr %13, align 8, !tbaa !46
  store i64 %3, ptr %14, align 8, !tbaa !88
  store ptr %4, ptr %15, align 8, !tbaa !46
  store i64 %5, ptr %16, align 8, !tbaa !88
  store i64 %6, ptr %17, align 8, !tbaa !88
  store i64 %7, ptr %18, align 8, !tbaa !88
  store ptr %8, ptr %19, align 8, !tbaa !77
  store ptr %9, ptr %20, align 8, !tbaa !89
  call void @llvm.lifetime.start.p0(i64 8, ptr %21) #12
  %29 = load ptr, ptr %11, align 8, !tbaa !46
  store ptr %29, ptr %21, align 8, !tbaa !46
  call void @llvm.lifetime.start.p0(i64 8, ptr %22) #12
  %30 = load ptr, ptr %13, align 8, !tbaa !46
  store ptr %30, ptr %22, align 8, !tbaa !46
  call void @llvm.lifetime.start.p0(i64 8, ptr %23) #12
  %31 = load ptr, ptr %20, align 8, !tbaa !89
  %32 = getelementptr inbounds nuw %struct.SliceParams, ptr %31, i32 0, i32 0
  %33 = load ptr, ptr %32, align 8, !tbaa !93
  store ptr %33, ptr %23, align 8, !tbaa !95
  call void @llvm.lifetime.start.p0(i64 4, ptr %24) #12
  %34 = load ptr, ptr %20, align 8, !tbaa !89
  %35 = getelementptr inbounds nuw %struct.SliceParams, ptr %34, i32 0, i32 1
  %36 = load i32, ptr %35, align 8, !tbaa !96
  store i32 %36, ptr %24, align 4, !tbaa !37
  call void @llvm.lifetime.start.p0(i64 8, ptr %25) #12
  %37 = load ptr, ptr %15, align 8, !tbaa !46
  store ptr %37, ptr %25, align 8, !tbaa !46
  call void @llvm.lifetime.start.p0(i64 8, ptr %26) #12
  %38 = load ptr, ptr %20, align 8, !tbaa !89
  %39 = getelementptr inbounds nuw %struct.SliceParams, ptr %38, i32 0, i32 2
  %40 = load ptr, ptr %39, align 8, !tbaa !97
  store ptr %40, ptr %26, align 8, !tbaa !41
  call void @llvm.lifetime.start.p0(i64 4, ptr %27) #12
  call void @llvm.lifetime.start.p0(i64 4, ptr %28) #12
  %41 = load i64, ptr %16, align 8, !tbaa !88
  %42 = sdiv i64 %41, 1
  store i64 %42, ptr %16, align 8, !tbaa !88
  %43 = load i64, ptr %12, align 8, !tbaa !88
  %44 = sdiv i64 %43, 1
  store i64 %44, ptr %12, align 8, !tbaa !88
  %45 = load i64, ptr %14, align 8, !tbaa !88
  %46 = sdiv i64 %45, 1
  store i64 %46, ptr %14, align 8, !tbaa !88
  store i32 0, ptr %27, align 4, !tbaa !37
  br label %47

47:                                               ; preds = %110, %10
  %48 = load i32, ptr %27, align 4, !tbaa !37
  %49 = sext i32 %48 to i64
  %50 = load i64, ptr %18, align 8, !tbaa !88
  %51 = icmp slt i64 %49, %50
  br i1 %51, label %52, label %113

52:                                               ; preds = %47
  %53 = load i32, ptr %27, align 4, !tbaa !37
  %54 = load i32, ptr %24, align 4, !tbaa !37
  %55 = add nsw i32 %53, %54
  %56 = sitofp i32 %55 to double
  %57 = load ptr, ptr %23, align 8, !tbaa !95
  %58 = getelementptr inbounds double, ptr %57, i64 1
  store double %56, ptr %58, align 8, !tbaa !98
  store i32 0, ptr %28, align 4, !tbaa !37
  br label %59

59:                                               ; preds = %97, %52
  %60 = load i32, ptr %28, align 4, !tbaa !37
  %61 = sext i32 %60 to i64
  %62 = load i64, ptr %17, align 8, !tbaa !88
  %63 = icmp slt i64 %61, %62
  br i1 %63, label %64, label %100

64:                                               ; preds = %59
  %65 = load i32, ptr %28, align 4, !tbaa !37
  %66 = sitofp i32 %65 to double
  %67 = load ptr, ptr %23, align 8, !tbaa !95
  %68 = getelementptr inbounds double, ptr %67, i64 0
  store double %66, ptr %68, align 8, !tbaa !98
  %69 = load ptr, ptr %21, align 8, !tbaa !46
  %70 = load i32, ptr %28, align 4, !tbaa !37
  %71 = sext i32 %70 to i64
  %72 = getelementptr inbounds i8, ptr %69, i64 %71
  %73 = load i8, ptr %72, align 1, !tbaa !109
  %74 = uitofp i8 %73 to double
  %75 = load ptr, ptr %23, align 8, !tbaa !95
  %76 = getelementptr inbounds double, ptr %75, i64 8
  store double %74, ptr %76, align 8, !tbaa !98
  %77 = load ptr, ptr %23, align 8, !tbaa !95
  %78 = getelementptr inbounds double, ptr %77, i64 10
  store double %74, ptr %78, align 8, !tbaa !98
  %79 = load ptr, ptr %22, align 8, !tbaa !46
  %80 = load i32, ptr %28, align 4, !tbaa !37
  %81 = sext i32 %80 to i64
  %82 = getelementptr inbounds i8, ptr %79, i64 %81
  %83 = load i8, ptr %82, align 1, !tbaa !109
  %84 = uitofp i8 %83 to double
  %85 = load ptr, ptr %23, align 8, !tbaa !95
  %86 = getelementptr inbounds double, ptr %85, i64 9
  store double %84, ptr %86, align 8, !tbaa !98
  %87 = load ptr, ptr %23, align 8, !tbaa !95
  %88 = getelementptr inbounds double, ptr %87, i64 11
  store double %84, ptr %88, align 8, !tbaa !98
  %89 = load ptr, ptr %26, align 8, !tbaa !41
  %90 = load ptr, ptr %23, align 8, !tbaa !95
  %91 = call nsz double @av_expr_eval(ptr noundef %89, ptr noundef %90, ptr noundef null)
  %92 = fptoui double %91 to i8
  %93 = load ptr, ptr %25, align 8, !tbaa !46
  %94 = load i32, ptr %28, align 4, !tbaa !37
  %95 = sext i32 %94 to i64
  %96 = getelementptr inbounds i8, ptr %93, i64 %95
  store i8 %92, ptr %96, align 1, !tbaa !109
  br label %97

97:                                               ; preds = %64
  %98 = load i32, ptr %28, align 4, !tbaa !37
  %99 = add nsw i32 %98, 1
  store i32 %99, ptr %28, align 4, !tbaa !37
  br label %59, !llvm.loop !110

100:                                              ; preds = %59
  %101 = load i64, ptr %16, align 8, !tbaa !88
  %102 = load ptr, ptr %25, align 8, !tbaa !46
  %103 = getelementptr inbounds i8, ptr %102, i64 %101
  store ptr %103, ptr %25, align 8, !tbaa !46
  %104 = load i64, ptr %12, align 8, !tbaa !88
  %105 = load ptr, ptr %21, align 8, !tbaa !46
  %106 = getelementptr inbounds i8, ptr %105, i64 %104
  store ptr %106, ptr %21, align 8, !tbaa !46
  %107 = load i64, ptr %14, align 8, !tbaa !88
  %108 = load ptr, ptr %22, align 8, !tbaa !46
  %109 = getelementptr inbounds i8, ptr %108, i64 %107
  store ptr %109, ptr %22, align 8, !tbaa !46
  br label %110

110:                                              ; preds = %100
  %111 = load i32, ptr %27, align 4, !tbaa !37
  %112 = add nsw i32 %111, 1
  store i32 %112, ptr %27, align 4, !tbaa !37
  br label %47, !llvm.loop !111

113:                                              ; preds = %47
  call void @llvm.lifetime.end.p0(i64 4, ptr %28) #12
  call void @llvm.lifetime.end.p0(i64 4, ptr %27) #12
  call void @llvm.lifetime.end.p0(i64 8, ptr %26) #12
  call void @llvm.lifetime.end.p0(i64 8, ptr %25) #12
  call void @llvm.lifetime.end.p0(i64 4, ptr %24) #12
  call void @llvm.lifetime.end.p0(i64 8, ptr %23) #12
  call void @llvm.lifetime.end.p0(i64 8, ptr %22) #12
  call void @llvm.lifetime.end.p0(i64 8, ptr %21) #12
  ret void
}