; Function Attrs: nounwind uwtable
define internal void @blend_expr_8bit(ptr noundef readonly captures(none) %0, i64 noundef %1, ptr noundef readonly captures(none) %2, i64 noundef %3, ptr noundef writeonly captures(none) %4, i64 noundef %5, i64 noundef %6, i64 noundef %7, ptr readnone captures(none) %8, ptr noundef readonly captures(none) %9) #0 {
  %11 = load ptr, ptr %9, align 8, !tbaa !76
  %12 = getelementptr inbounds nuw i8, ptr %9, i64 8
  %13 = load i32, ptr %12, align 8, !tbaa !78
  %14 = getelementptr inbounds nuw i8, ptr %9, i64 16
  %15 = load ptr, ptr %14, align 8, !tbaa !79
  %16 = icmp sgt i64 %7, 0
  br i1 %16, label %.lr.ph48, label %._crit_edge49

.lr.ph48:                                         ; preds = %10
  %17 = getelementptr inbounds nuw i8, ptr %11, i64 8
  %18 = icmp sgt i64 %6, 0
  %19 = getelementptr inbounds nuw i8, ptr %11, i64 64
  %20 = getelementptr inbounds nuw i8, ptr %11, i64 80
  %21 = getelementptr inbounds nuw i8, ptr %11, i64 72
  %22 = getelementptr inbounds nuw i8, ptr %11, i64 88
  br i1 %18, label %.lr.ph.us, label %.lr.ph48.split.preheader

.lr.ph48.split.preheader:                         ; preds = %.lr.ph48
  %23 = trunc i64 %7 to i32
  %24 = add i32 %23, -1
  %25 = add nsw i32 %24, %13
  %26 = sitofp i32 %25 to double
  store double %26, ptr %17, align 8, !tbaa !80
  br label %._crit_edge49

.lr.ph.us:                                        ; preds = %.lr.ph48, %._crit_edge.us
  %indvars.iv53 = phi i64 [ %indvars.iv.next54, %._crit_edge.us ], [ 0, %.lr.ph48 ]
  %.03845.us = phi ptr [ %42, %._crit_edge.us ], [ %4, %.lr.ph48 ]
  %.03944.us = phi ptr [ %44, %._crit_edge.us ], [ %2, %.lr.ph48 ]
  %.04043.us = phi ptr [ %43, %._crit_edge.us ], [ %0, %.lr.ph48 ]
  %27 = trunc i64 %indvars.iv53 to i32
  %28 = add i32 %13, %27
  %29 = sitofp i32 %28 to double
  store double %29, ptr %17, align 8, !tbaa !80
  br label %30

30:                                               ; preds = %.lr.ph.us, %30
  %indvars.iv = phi i64 [ 0, %.lr.ph.us ], [ %indvars.iv.next, %30 ]
  %31 = trunc nuw nsw i64 %indvars.iv to i32
  %32 = uitofp nneg i32 %31 to double
  store double %32, ptr %11, align 8, !tbaa !80
  %33 = getelementptr inbounds nuw i8, ptr %.04043.us, i64 %indvars.iv
  %34 = load i8, ptr %33, align 1, !tbaa !89
  %35 = uitofp i8 %34 to double
  store double %35, ptr %19, align 8, !tbaa !80
  store double %35, ptr %20, align 8, !tbaa !80
  %36 = getelementptr inbounds nuw i8, ptr %.03944.us, i64 %indvars.iv
  %37 = load i8, ptr %36, align 1, !tbaa !89
  %38 = uitofp i8 %37 to double
  store double %38, ptr %21, align 8, !tbaa !80
  store double %38, ptr %22, align 8, !tbaa !80
  %39 = tail call nsz double @av_expr_eval(ptr noundef %15, ptr noundef nonnull %11, ptr noundef null) #12
  %40 = fptoui double %39 to i8
  %41 = getelementptr inbounds nuw i8, ptr %.03845.us, i64 %indvars.iv
  store i8 %40, ptr %41, align 1, !tbaa !89
  %indvars.iv.next = add nuw nsw i64 %indvars.iv, 1
  %exitcond.not = icmp eq i64 %indvars.iv.next, %6
  br i1 %exitcond.not, label %._crit_edge.us, label %30, !llvm.loop !90

._crit_edge.us:                                   ; preds = %30
  %42 = getelementptr inbounds i8, ptr %.03845.us, i64 %5
  %43 = getelementptr inbounds i8, ptr %.04043.us, i64 %1
  %44 = getelementptr inbounds i8, ptr %.03944.us, i64 %3
  %indvars.iv.next54 = add nuw nsw i64 %indvars.iv53, 1
  %exitcond56.not = icmp eq i64 %indvars.iv.next54, %7
  br i1 %exitcond56.not, label %._crit_edge49, label %.lr.ph.us, !llvm.loop !91

._crit_edge49:                                    ; preds = %._crit_edge.us, %.lr.ph48.split.preheader, %10
  ret void
}